; Function Attrs: mustprogress uwtable
define hidden void @_ZN5arith6solver9push_coreEv(ptr noundef nonnull align 8 dereferenceable(1144) %this) unnamed_addr #3 align 2 {
entry:
  %m_scopes = getelementptr inbounds i8, ptr %this, i64 568
  %0 = load ptr, ptr %m_scopes, align 8
  %cmp.i = icmp eq ptr %0, null
  br i1 %cmp.i, label %if.then.i, label %lor.lhs.false.i

lor.lhs.false.i:                                  ; preds = %entry
  %arrayidx.i = getelementptr inbounds i8, ptr %0, i64 -4
  %1 = load i32, ptr %arrayidx.i, align 4
  %arrayidx4.i = getelementptr inbounds i8, ptr %0, i64 -8
  %2 = load i32, ptr %arrayidx4.i, align 4
  %cmp5.i = icmp eq i32 %1, %2
  br i1 %cmp5.i, label %if.then.i, label %_ZN6vectorIN5arith6solver5scopeELb0EjE9push_backEOS2_.exit

if.then.i:                                        ; preds = %lor.lhs.false.i, %entry
  tail call void @_ZN6vectorIN5arith6solver5scopeELb0EjE13expand_vectorEv(ptr noundef nonnull align 8 dereferenceable(8) %m_scopes)
  %.pre.i = load ptr, ptr %m_scopes, align 8
  %arrayidx8.phi.trans.insert.i = getelementptr inbounds i8, ptr %.pre.i, i64 -4
  %.pre1.i = load i32, ptr %arrayidx8.phi.trans.insert.i, align 4
  br label %_ZN6vectorIN5arith6solver5scopeELb0EjE9push_backEOS2_.exit

_ZN6vectorIN5arith6solver5scopeELb0EjE9push_backEOS2_.exit: ; preds = %lor.lhs.false.i, %if.then.i
  %3 = phi i32 [ %.pre1.i, %if.then.i ], [ %1, %lor.lhs.false.i ]
  %4 = phi ptr [ %.pre.i, %if.then.i ], [ %0, %lor.lhs.false.i ]
  %idx.ext.i = zext i32 %3 to i64
  %add.ptr.i = getelementptr inbounds %"struct.arith::solver::scope", ptr %4, i64 %idx.ext.i
  tail call void @llvm.memset.p0.i64(ptr noundef nonnull align 4 dereferenceable(12) %add.ptr.i, i8 0, i64 12, i1 false)
  %5 = load ptr, ptr %m_scopes, align 8
  %arrayidx10.i = getelementptr inbounds i8, ptr %5, i64 -4
  %6 = load i32, ptr %arrayidx10.i, align 4
  %inc.i = add i32 %6, 1
  store i32 %inc.i, ptr %arrayidx10.i, align 4
  %7 = load ptr, ptr %m_scopes, align 8
  %cmp.i.i = icmp eq ptr %7, null
  br i1 %cmp.i.i, label %_ZN6vectorIN5arith6solver5scopeELb0EjE4backEv.exit, label %if.end.i.i

if.end.i.i:                                       ; preds = %_ZN6vectorIN5arith6solver5scopeELb0EjE9push_backEOS2_.exit
  %arrayidx.i.i = getelementptr inbounds i8, ptr %7, i64 -4
  %8 = load i32, ptr %arrayidx.i.i, align 4
  %9 = add i32 %8, -1
  %10 = zext i32 %9 to i64
  br label %_ZN6vectorIN5arith6solver5scopeELb0EjE4backEv.exit

_ZN6vectorIN5arith6solver5scopeELb0EjE4backEv.exit: ; preds = %_ZN6vectorIN5arith6solver5scopeELb0EjE9push_backEOS2_.exit, %if.end.i.i
  %retval.0.i.i = phi i64 [ %10, %if.end.i.i ], [ 4294967295, %_ZN6vectorIN5arith6solver5scopeELb0EjE9push_backEOS2_.exit ]
  %arrayidx.i1.i = getelementptr inbounds %"struct.arith::solver::scope", ptr %7, i64 %retval.0.i.i
  %m_bounds_trail = getelementptr inbounds i8, ptr %this, i64 440
  %11 = load ptr, ptr %m_bounds_trail, align 8
  %cmp.i3 = icmp eq ptr %11, null
  br i1 %cmp.i3, label %_ZNK6vectorIjLb0EjE4sizeEv.exit, label %if.end.i

if.end.i:                                         ; preds = %_ZN6vectorIN5arith6solver5scopeELb0EjE4backEv.exit
  %arrayidx.i4 = getelementptr inbounds i8, ptr %11, i64 -4
  %12 = load i32, ptr %arrayidx.i4, align 4
  br label %_ZNK6vectorIjLb0EjE4sizeEv.exit

_ZNK6vectorIjLb0EjE4sizeEv.exit:                  ; preds = %_ZN6vectorIN5arith6solver5scopeELb0EjE4backEv.exit, %if.end.i
  %retval.0.i = phi i32 [ %12, %if.end.i ], [ 0, %_ZN6vectorIN5arith6solver5scopeELb0EjE4backEv.exit ]
  store i32 %retval.0.i, ptr %arrayidx.i1.i, align 4
  %m_asserted_qhead = getelementptr inbounds i8, ptr %this, i64 448
  %13 = load i32, ptr %m_asserted_qhead, align 8
  %m_asserted_qhead5 = getelementptr inbounds i8, ptr %arrayidx.i1.i, i64 4
  store i32 %13, ptr %m_asserted_qhead5, align 4
  %m_asserted = getelementptr inbounds i8, ptr %this, i64 352
  %14 = load ptr, ptr %m_asserted, align 8
  %cmp.i5 = icmp eq ptr %14, null
  br i1 %cmp.i5, label %_ZNK6vectorIN3sat7literalELb0EjE4sizeEv.exit, label %if.end.i6

if.end.i6:                                        ; preds = %_ZNK6vectorIjLb0EjE4sizeEv.exit
  %arrayidx.i7 = getelementptr inbounds i8, ptr %14, i64 -4
  %15 = load i32, ptr %arrayidx.i7, align 4
  br label %_ZNK6vectorIN3sat7literalELb0EjE4sizeEv.exit

_ZNK6vectorIN3sat7literalELb0EjE4sizeEv.exit:     ; preds = %_ZNK6vectorIjLb0EjE4sizeEv.exit, %if.end.i6
  %retval.0.i8 = phi i32 [ %15, %if.end.i6 ], [ 0, %_ZNK6vectorIjLb0EjE4sizeEv.exit ]
  %m_asserted_lim = getelementptr inbounds i8, ptr %arrayidx.i1.i, i64 8
  store i32 %retval.0.i8, ptr %m_asserted_lim, align 4
  %m_solver.i = getelementptr inbounds i8, ptr %this, i64 592
  %16 = load ptr, ptr %m_solver.i, align 8
  tail call void @_ZN2lp10lar_solver4pushEv(ptr noundef nonnull align 8 dereferenceable(1888) %16)
  %m_nla = getelementptr inbounds i8, ptr %this, i64 576
  %17 = load ptr, ptr %m_nla, align 8
  %cmp.i9.not = icmp eq ptr %17, null
  br i1 %cmp.i9.not, label %if.end, label %if.then

if.then:                                          ; preds = %_ZNK6vectorIN3sat7literalELb0EjE4sizeEv.exit
  tail call void @_ZN3nla6solver4pushEv(ptr noundef nonnull align 8 dereferenceable(8) %17)
  br label %if.end

if.end:                                           ; preds = %if.then, %_ZNK6vectorIN3sat7literalELb0EjE4sizeEv.exit
  tail call void @_ZN3euf13th_euf_solver9push_coreEv(ptr noundef nonnull align 8 dereferenceable(108) %this)
  ret void
}